; Function Attrs: mustprogress nounwind uwtable
define hidden noundef ptr @_ZNK12ReverseINode5ValueEP8PhaseGVN(ptr noundef nonnull align 8 dereferenceable(52) %0, ptr nocapture noundef readonly %1) unnamed_addr #0 align 2 {
  %3 = getelementptr inbounds i8, ptr %0, i64 8
  %4 = load ptr, ptr %3, align 8
  %5 = getelementptr inbounds i8, ptr %4, i64 8
  %6 = load ptr, ptr %5, align 8
  %7 = getelementptr inbounds i8, ptr %1, i64 40
  %8 = load ptr, ptr %7, align 8
  %9 = getelementptr inbounds i8, ptr %6, i64 40
  %10 = load i32, ptr %9, align 8
  %11 = getelementptr inbounds i8, ptr %8, i64 16
  %12 = load ptr, ptr %11, align 8
  %13 = zext i32 %10 to i64
  %14 = getelementptr inbounds ptr, ptr %12, i64 %13
  %15 = load ptr, ptr %14, align 8
  %16 = load ptr, ptr @_ZN4Type3TOPE, align 8
  %17 = icmp eq ptr %15, %16
  br i1 %17, label %36, label %18

18:                                               ; preds = %2
  %19 = getelementptr inbounds i8, ptr %15, i64 16
  %20 = load i32, ptr %19, align 8
  %21 = icmp ne i32 %20, 3
  %.not11 = icmp eq ptr %15, null
  %.not = or i1 %.not11, %21
  br i1 %.not, label %31, label %22

22:                                               ; preds = %18
  %23 = getelementptr inbounds i8, ptr %15, i64 24
  %24 = load i32, ptr %23, align 8
  %25 = getelementptr inbounds i8, ptr %15, i64 28
  %26 = load i32, ptr %25, align 4
  %27 = icmp eq i32 %24, %26
  br i1 %27, label %28, label %31

28:                                               ; preds = %22
  %29 = tail call noundef i32 @llvm.bitreverse.i32(i32 %24)
  %30 = tail call noundef ptr @_ZN7TypeInt4makeEi(i32 noundef %29) #10
  br label %36

31:                                               ; preds = %22, %18
  %32 = load ptr, ptr %0, align 8
  %33 = getelementptr inbounds i8, ptr %32, i64 40
  %34 = load ptr, ptr %33, align 8
  %35 = tail call noundef ptr %34(ptr noundef nonnull align 8 dereferenceable(52) %0) #10
  br label %36

36:                                               ; preds = %2, %31, %28
  %.0 = phi ptr [ %30, %28 ], [ %35, %31 ], [ %16, %2 ]
  ret ptr %.0
}